; ModuleID = 'source-C-CXX/30/1863.c'
source_filename = "source-C-CXX/30/1863.c"
target datalayout = "e-m:e-p270:32:32-p271:32:32-p272:64:64-i64:64-f80:128-n8:16:32:64-S128"
target triple = "x86_64-pc-linux-gnu"

; Function Attrs: nounwind sspstrong uwtable
define dso_local void @main() local_unnamed_addr #0 {
  %1 = alloca [1000 x [100 x i8]], align 16
  %2 = getelementptr inbounds [1000 x [100 x i8]], [1000 x [100 x i8]]* %1, i64 0, i64 0, i64 0
  call void @llvm.lifetime.start.p0i8(i64 100000, i8* nonnull %2) #4
  %3 = call i32 (i8*, ...) bitcast (i32 (...)* @gets to i32 (i8*, ...)*)(i8* nonnull %2) #4
  %4 = load i8, i8* %2, align 16, !tbaa !5
  %5 = icmp eq i8 %4, 101
  br i1 %5, label %27, label %11

6:                                                ; preds = %11
  %7 = trunc i64 %13 to i32
  %8 = icmp sgt i32 %7, 0
  br i1 %8, label %9, label %27

9:                                                ; preds = %6
  %10 = and i64 %13, 4294967295
  br label %18

11:                                               ; preds = %0, %11
  %12 = phi i64 [ %13, %11 ], [ 0, %0 ]
  %13 = add nuw i64 %12, 1
  %14 = getelementptr inbounds [1000 x [100 x i8]], [1000 x [100 x i8]]* %1, i64 0, i64 %13, i64 0
  %15 = call i32 (i8*, ...) bitcast (i32 (...)* @gets to i32 (i8*, ...)*)(i8* nonnull %14) #4
  %16 = load i8, i8* %14, align 4, !tbaa !5
  %17 = icmp eq i8 %16, 101
  br i1 %17, label %6, label %11, !llvm.loop !8

18:                                               ; preds = %9, %18
  %19 = phi i64 [ %10, %9 ], [ %26, %18 ]
  %20 = phi i32 [ %7, %9 ], [ %21, %18 ]
  %21 = add nsw i32 %20, -1
  %22 = zext i32 %21 to i64
  %23 = getelementptr inbounds [1000 x [100 x i8]], [1000 x [100 x i8]]* %1, i64 0, i64 %22, i64 0
  %24 = call i32 @puts(i8* nonnull %23)
  %25 = icmp sgt i64 %19, 1
  %26 = add nsw i64 %19, -1
  br i1 %25, label %18, label %27, !llvm.loop !10

27:                                               ; preds = %18, %0, %6
  call void @llvm.lifetime.end.p0i8(i64 100000, i8* nonnull %2) #4
  ret void
}

; Function Attrs: argmemonly mustprogress nofree nosync nounwind willreturn
declare void @llvm.lifetime.start.p0i8(i64 immarg, i8* nocapture) #1

declare i32 @gets(...) local_unnamed_addr #2

; Function Attrs: nofree nounwind
declare noundef i32 @puts(i8* nocapture noundef readonly) local_unnamed_addr #3

; Function Attrs: argmemonly mustprogress nofree nosync nounwind willreturn
declare void @llvm.lifetime.end.p0i8(i64 immarg, i8* nocapture) #1


!llvm.module.flags = !{!0, !1, !2, !3}
!llvm.ident = !{!4}

!0 = !{i32 1, !"wchar_size", i32 4}
!1 = !{i32 7, !"PIC Level", i32 2}
!2 = !{i32 7, !"PIE Level", i32 2}
!3 = !{i32 7, !"uwtable", i32 1}
!4 = !{!"clang version 13.0.0"}
!5 = !{!6, !6, i64 0}
!6 = !{!"omnipotent char", !7, i64 0}
!7 = !{!"Simple C/C++ TBAA"}
!8 = distinct !{!8, !9}
!9 = !{!"llvm.loop.mustprogress"}
!10 = distinct !{!10, !9}
